; Function Attrs: nounwind uwtable
define ptr @l_Lean_Elab_PartialFixpoint_derivePartialCorrectness(ptr noundef %0, ptr noundef %1, ptr noundef %2, ptr noundef %3, ptr noundef %4, ptr noundef %5) local_unnamed_addr #0 {
  %7 = load ptr, ptr @l_Lean_Elab_PartialFixpoint_derivePartialCorrectness___closed__1, align 8, !tbaa !9
  %8 = ptrtoint ptr %0 to i64
  %9 = and i64 %8, 1
  %.not = icmp eq i64 %9, 0
  br i1 %.not, label %10, label %lean_inc.exit25

10:                                               ; preds = %6
  %.val.i = load i32, ptr %0, align 4, !tbaa !4
  %11 = icmp sgt i32 %.val.i, 0
  br i1 %11, label %12, label %14, !prof !14

12:                                               ; preds = %10
  %13 = add nuw i32 %.val.i, 1
  store i32 %13, ptr %0, align 4, !tbaa !4
  br label %18

14:                                               ; preds = %10
  %.not.i = icmp eq i32 %.val.i, 0
  br i1 %.not.i, label %18, label %15

15:                                               ; preds = %14
  tail call void @lean_inc_ref_cold(ptr noundef nonnull %0) #6
  br label %18

lean_inc.exit25:                                  ; preds = %6
  %16 = tail call ptr @l_Lean_Name_append(ptr noundef %0, ptr noundef %7) #6
  %17 = load ptr, ptr @l_Lean_Elab_PartialFixpoint_deriveInduction___closed__2, align 8, !tbaa !9
  br label %lean_inc.exit24

18:                                               ; preds = %15, %14, %12
  %19 = tail call ptr @l_Lean_Name_append(ptr noundef nonnull %0, ptr noundef %7) #6
  %20 = load ptr, ptr @l_Lean_Elab_PartialFixpoint_deriveInduction___closed__2, align 8, !tbaa !9
  %.val.i26 = load i32, ptr %0, align 4, !tbaa !4
  %21 = icmp sgt i32 %.val.i26, 0
  br i1 %21, label %22, label %24, !prof !14

22:                                               ; preds = %18
  %23 = add nuw i32 %.val.i26, 1
  store i32 %23, ptr %0, align 4, !tbaa !4
  br label %lean_inc.exit24

24:                                               ; preds = %18
  %.not.i27 = icmp eq i32 %.val.i26, 0
  br i1 %.not.i27, label %lean_inc.exit24, label %25

25:                                               ; preds = %24
  tail call void @lean_inc_ref_cold(ptr noundef nonnull %0) #6
  br label %lean_inc.exit24

lean_inc.exit24:                                  ; preds = %25, %24, %22, %lean_inc.exit25
  %26 = phi ptr [ %17, %lean_inc.exit25 ], [ %20, %22 ], [ %20, %24 ], [ %20, %25 ]
  %27 = phi ptr [ %16, %lean_inc.exit25 ], [ %19, %22 ], [ %19, %24 ], [ %19, %25 ]
  %28 = tail call ptr @l_Lean_Name_append(ptr noundef %0, ptr noundef %26) #6
  %29 = ptrtoint ptr %27 to i64
  %30 = and i64 %29, 1
  %.not35 = icmp eq i64 %30, 0
  br i1 %.not35, label %31, label %lean_inc.exit23

31:                                               ; preds = %lean_inc.exit24
  %.val.i29 = load i32, ptr %27, align 4, !tbaa !4
  %32 = icmp sgt i32 %.val.i29, 0
  br i1 %32, label %33, label %35, !prof !14

33:                                               ; preds = %31
  %34 = add nuw i32 %.val.i29, 1
  store i32 %34, ptr %27, align 4, !tbaa !4
  br label %lean_inc.exit23

35:                                               ; preds = %31
  %.not.i30 = icmp eq i32 %.val.i29, 0
  br i1 %.not.i30, label %lean_inc.exit23, label %36

36:                                               ; preds = %35
  tail call void @lean_inc_ref_cold(ptr noundef nonnull %27) #6
  br label %lean_inc.exit23

lean_inc.exit23:                                  ; preds = %36, %35, %33, %lean_inc.exit24
  br i1 %.not, label %37, label %lean_inc.exit

37:                                               ; preds = %lean_inc.exit23
  %.val.i32 = load i32, ptr %0, align 4, !tbaa !4
  %38 = icmp sgt i32 %.val.i32, 0
  br i1 %38, label %39, label %41, !prof !14

39:                                               ; preds = %37
  %40 = add nuw i32 %.val.i32, 1
  store i32 %40, ptr %0, align 4, !tbaa !4
  br label %lean_inc.exit

41:                                               ; preds = %37
  %.not.i33 = icmp eq i32 %.val.i32, 0
  br i1 %.not.i33, label %lean_inc.exit, label %42

42:                                               ; preds = %41
  tail call void @lean_inc_ref_cold(ptr noundef nonnull %0) #6
  br label %lean_inc.exit

lean_inc.exit:                                    ; preds = %42, %41, %39, %lean_inc.exit23
  tail call void @lean_inc_heartbeat() #6
  %43 = tail call noalias ptr @mi_malloc_small(i64 noundef 48) #6
  %44 = icmp eq ptr %43, null
  br i1 %44, label %45, label %lean_alloc_closure.exit

45:                                               ; preds = %lean_inc.exit
  tail call void @lean_internal_panic_out_of_memory() #7
  unreachable

lean_alloc_closure.exit:                          ; preds = %lean_inc.exit
  %46 = getelementptr inbounds nuw i8, ptr %43, i64 4
  store i32 1, ptr %43, align 4, !tbaa !4
  store i32 -184549328, ptr %46, align 4
  %47 = getelementptr inbounds nuw i8, ptr %43, i64 8
  store ptr @l_Lean_Elab_PartialFixpoint_derivePartialCorrectness___lambda__5, ptr %47, align 8, !tbaa !9
  %48 = getelementptr inbounds nuw i8, ptr %43, i64 16
  store i16 8, ptr %48, align 8, !tbaa !15
  %49 = getelementptr inbounds nuw i8, ptr %43, i64 18
  store i16 3, ptr %49, align 2, !tbaa !15
  %50 = getelementptr inbounds nuw i8, ptr %43, i64 24
  store ptr %0, ptr %50, align 8, !tbaa !9
  %51 = getelementptr inbounds nuw i8, ptr %43, i64 32
  store ptr %28, ptr %51, align 8, !tbaa !9
  %52 = getelementptr inbounds nuw i8, ptr %43, i64 40
  store ptr %27, ptr %52, align 8, !tbaa !9
  %53 = tail call ptr @l_Lean_Meta_realizeConst(ptr noundef %0, ptr noundef %27, ptr noundef nonnull %43, ptr noundef %1, ptr noundef %2, ptr noundef %3, ptr noundef %4, ptr noundef %5) #6
  ret ptr %53
}